target datalayout = "e-m:e-p270:32:32-p271:32:32-p272:64:64-i64:64-i128:128-f80:128-n8:16:32:64-S128"
target triple = "x86_64-pc-linux-gnu"

@.str.3 = private unnamed_addr constant [12 x i8] c"bitstring.c\00", align 1
@.str.10 = private unnamed_addr constant [4 x i8] c"0x0\00", align 1
@__func__._bit_fmt_hexmask = private unnamed_addr constant [17 x i8] c"_bit_fmt_hexmask\00", align 1

; Function Attrs: nounwind uwtable
define dso_local i64 @bit_fls_from_bit(ptr noundef %0, i64 noundef %1) #0 {
  %3 = alloca i64, align 8
  %4 = alloca ptr, align 8
  %5 = alloca i64, align 8
  %6 = alloca i64, align 8
  %7 = alloca i32, align 4
  %8 = alloca i32, align 4
  store ptr %0, ptr %4, align 8
  store i64 %1, ptr %5, align 8
  call void @llvm.lifetime.start.p0(i64 8, ptr %6) #12
  store i64 -1, ptr %6, align 8
  call void @llvm.lifetime.start.p0(i64 4, ptr %7) #12
  br label %9

9:                                                ; preds = %2
  br label %10

10:                                               ; preds = %9
  br label %11

11:                                               ; preds = %10
  br label %12

12:                                               ; preds = %11
  br label %13

13:                                               ; preds = %12
  br label %14

14:                                               ; preds = %13
  %15 = load ptr, ptr %4, align 8
  %16 = getelementptr inbounds i64, ptr %15, i64 1
  %17 = load i64, ptr %16, align 8
  %18 = icmp eq i64 %17, 0
  br i1 %18, label %19, label %20

19:                                               ; preds = %14
  store i64 -1, ptr %3, align 8
  store i32 1, ptr %8, align 4
  br label %90

20:                                               ; preds = %14
  br label %21

21:                                               ; preds = %51, %20
  %22 = load i64, ptr %5, align 8
  %23 = icmp sge i64 %22, 0
  br i1 %23, label %24, label %33

24:                                               ; preds = %21
  %25 = load i64, ptr %5, align 8
  %26 = ashr i64 %25, 6
  %27 = add nsw i64 %26, 2
  %28 = load i64, ptr %5, align 8
  %29 = add nsw i64 %28, 1
  %30 = ashr i64 %29, 6
  %31 = add nsw i64 %30, 2
  %32 = icmp eq i64 %27, %31
  br label %33

33:                                               ; preds = %24, %21
  %34 = phi i1 [ false, %21 ], [ %32, %24 ]
  br i1 %34, label %35, label %54

35:                                               ; preds = %33
  %36 = load ptr, ptr %4, align 8
  %37 = load i64, ptr %5, align 8
  %38 = ashr i64 %37, 6
  %39 = add nsw i64 %38, 2
  %40 = getelementptr inbounds i64, ptr %36, i64 %39
  %41 = load i64, ptr %40, align 8
  %42 = load i64, ptr %5, align 8
  %43 = and i64 %42, 63
  %44 = shl i64 1, %43
  %45 = and i64 %41, %44
  %46 = icmp ne i64 %45, 0
  br i1 %46, label %47, label %48

47:                                               ; preds = %35
  br i1 true, label %49, label %51

48:                                               ; preds = %35
  br i1 false, label %49, label %51

49:                                               ; preds = %48, %47
  %50 = load i64, ptr %5, align 8
  store i64 %50, ptr %6, align 8
  br label %54

51:                                               ; preds = %48, %47
  %52 = load i64, ptr %5, align 8
  %53 = add nsw i64 %52, -1
  store i64 %53, ptr %5, align 8
  br label %21, !llvm.loop !31

54:                                               ; preds = %49, %33
  br label %55

55:                                               ; preds = %77, %74, %54
  %56 = load i64, ptr %5, align 8
  %57 = icmp sge i64 %56, 0
  br i1 %57, label %58, label %61

58:                                               ; preds = %55
  %59 = load i64, ptr %6, align 8
  %60 = icmp eq i64 %59, -1
  br label %61

61:                                               ; preds = %58, %55
  %62 = phi i1 [ false, %55 ], [ %60, %58 ]
  br i1 %62, label %63, label %88

63:                                               ; preds = %61
  %64 = load i64, ptr %5, align 8
  %65 = ashr i64 %64, 6
  %66 = add nsw i64 %65, 2
  %67 = trunc i64 %66 to i32
  store i32 %67, ptr %7, align 4
  %68 = load ptr, ptr %4, align 8
  %69 = load i32, ptr %7, align 4
  %70 = sext i32 %69 to i64
  %71 = getelementptr inbounds i64, ptr %68, i64 %70
  %72 = load i64, ptr %71, align 8
  %73 = icmp eq i64 %72, 0
  br i1 %73, label %74, label %77

74:                                               ; preds = %63
  %75 = load i64, ptr %5, align 8
  %76 = sub i64 %75, 64
  store i64 %76, ptr %5, align 8
  br label %55, !llvm.loop !32

77:                                               ; preds = %63
  %78 = load i64, ptr %5, align 8
  %79 = load ptr, ptr %4, align 8
  %80 = load i32, ptr %7, align 4
  %81 = sext i32 %80 to i64
  %82 = getelementptr inbounds i64, ptr %79, i64 %81
  %83 = load i64, ptr %82, align 8
  %84 = call i64 @llvm.ctlz.i64(i64 %83, i1 true)
  %85 = trunc i64 %84 to i32
  %86 = sext i32 %85 to i64
  %87 = sub nsw i64 %78, %86
  store i64 %87, ptr %6, align 8
  br label %55, !llvm.loop !32

88:                                               ; preds = %61
  %89 = load i64, ptr %6, align 8
  store i64 %89, ptr %3, align 8
  store i32 1, ptr %8, align 4
  br label %90

90:                                               ; preds = %88, %19
  call void @llvm.lifetime.end.p0(i64 4, ptr %7) #12
  call void @llvm.lifetime.end.p0(i64 8, ptr %6) #12
  %91 = load i64, ptr %3, align 8
  ret i64 %91
}

; Function Attrs: nounwind uwtable
define dso_local i64 @bit_size(ptr noundef %0) #0 {
  %2 = alloca ptr, align 8
  store ptr %0, ptr %2, align 8
  br label %3

3:                                                ; preds = %1
  br label %4

4:                                                ; preds = %3
  %5 = load ptr, ptr %2, align 8
  %6 = getelementptr inbounds i64, ptr %5, i64 1
  %7 = load i64, ptr %6, align 8
  ret i64 %7
}

; Function Attrs: nounwind uwtable
define dso_local i64 @bit_fls(ptr noundef %0) #0 {
  %2 = alloca ptr, align 8
  %3 = alloca i64, align 8
  store ptr %0, ptr %2, align 8
  call void @llvm.lifetime.start.p0(i64 8, ptr %3) #12
  %4 = load ptr, ptr %2, align 8
  %5 = getelementptr inbounds i64, ptr %4, i64 1
  %6 = load i64, ptr %5, align 8
  %7 = sub nsw i64 %6, 1
  store i64 %7, ptr %3, align 8
  %8 = load ptr, ptr %2, align 8
  %9 = load i64, ptr %3, align 8
  %10 = call i64 @bit_fls_from_bit(ptr noundef %8, i64 noundef %9)
  call void @llvm.lifetime.end.p0(i64 8, ptr %3) #12
  ret i64 %10
}

; Function Attrs: nounwind uwtable
define internal ptr @_bit_fmt_hexmask(ptr noundef %0, i1 noundef zeroext %1) #0 {
  %3 = alloca ptr, align 8
  %4 = alloca ptr, align 8
  %5 = alloca i8, align 1
  %6 = alloca ptr, align 8
  %7 = alloca ptr, align 8
  %8 = alloca i8, align 1
  %9 = alloca i64, align 8
  %10 = alloca i64, align 8
  %11 = alloca i64, align 8
  %12 = alloca i64, align 8
  %13 = alloca i32, align 4
  %14 = alloca i64, align 8
  %15 = alloca i8, align 1
  store ptr %0, ptr %4, align 8
  %16 = zext i1 %1 to i8
  store i8 %16, ptr %5, align 1
  call void @llvm.lifetime.start.p0(i64 8, ptr %6) #12
  call void @llvm.lifetime.start.p0(i64 8, ptr %7) #12
  call void @llvm.lifetime.start.p0(i64 1, ptr %8) #12
  call void @llvm.lifetime.start.p0(i64 8, ptr %9) #12
  call void @llvm.lifetime.start.p0(i64 8, ptr %10) #12
  call void @llvm.lifetime.start.p0(i64 8, ptr %11) #12
  call void @llvm.lifetime.start.p0(i64 8, ptr %12) #12
  %17 = load i8, ptr %5, align 1, !range !46, !noundef !47
  %18 = trunc i8 %17 to i1
  br i1 %18, label %19, label %23

19:                                               ; preds = %2
  %20 = load ptr, ptr %4, align 8
  %21 = call i64 @bit_fls(ptr noundef %20)
  %22 = add nsw i64 %21, 1
  store i64 %22, ptr %12, align 8
  br label %26

23:                                               ; preds = %2
  %24 = load ptr, ptr %4, align 8
  %25 = call i64 @bit_size(ptr noundef %24)
  store i64 %25, ptr %12, align 8
  br label %26

26:                                               ; preds = %23, %19
  %27 = load i64, ptr %12, align 8
  %28 = icmp ne i64 %27, 0
  br i1 %28, label %31, label %29

29:                                               ; preds = %26
  %30 = call ptr @xstrdup(ptr noundef @.str.10)
  store ptr %30, ptr %3, align 8
  store i32 1, ptr %13, align 4
  br label %214

31:                                               ; preds = %26
  call void @llvm.lifetime.start.p0(i64 8, ptr %14) #12
  %32 = load i64, ptr %12, align 8
  %33 = add nsw i64 %32, 3
  %34 = sdiv i64 %33, 4
  store i64 %34, ptr %14, align 8
  %35 = load i64, ptr %14, align 8
  %36 = add nsw i64 %35, 3
  %37 = call ptr @slurm_xcalloc(i64 noundef 1, i64 noundef %36, i1 noundef zeroext true, i1 noundef zeroext false, ptr noundef @.str.3, i32 noundef 1679, ptr noundef @__func__._bit_fmt_hexmask)
  store ptr %37, ptr %6, align 8
  %38 = load ptr, ptr %6, align 8
  %39 = getelementptr inbounds i8, ptr %38, i64 0
  store i8 48, ptr %39, align 1
  %40 = load ptr, ptr %6, align 8
  %41 = getelementptr inbounds i8, ptr %40, i64 1
  store i8 120, ptr %41, align 1
  %42 = load ptr, ptr %6, align 8
  %43 = load i64, ptr %14, align 8
  %44 = add nsw i64 %43, 2
  %45 = getelementptr inbounds i8, ptr %42, i64 %44
  store i8 0, ptr %45, align 1
  %46 = load ptr, ptr %6, align 8
  %47 = load i64, ptr %14, align 8
  %48 = add nsw i64 %47, 1
  %49 = getelementptr inbounds i8, ptr %46, i64 %48
  store ptr %49, ptr %7, align 8
  store i64 0, ptr %9, align 8
  br label %50

50:                                               ; preds = %211, %31
  %51 = load i64, ptr %9, align 8
  %52 = load i64, ptr %12, align 8
  %53 = icmp slt i64 %51, %52
  br i1 %53, label %54, label %212

54:                                               ; preds = %50
  %55 = load i64, ptr %9, align 8
  %56 = add i64 %55, 64
  %57 = load i64, ptr %12, align 8
  %58 = icmp ule i64 %56, %57
  br i1 %58, label %59, label %97

59:                                               ; preds = %54
  %60 = load i64, ptr %9, align 8
  %61 = ashr i64 %60, 6
  %62 = add nsw i64 %61, 2
  store i64 %62, ptr %11, align 8
  store i64 0, ptr %10, align 8
  br label %63

63:                                               ; preds = %91, %59
  %64 = load i64, ptr %10, align 8
  %65 = icmp ult i64 %64, 8
  br i1 %65, label %66, label %94

66:                                               ; preds = %63
  call void @llvm.lifetime.start.p0(i64 1, ptr %15) #12
  %67 = load ptr, ptr %4, align 8
  %68 = load i64, ptr %11, align 8
  %69 = getelementptr inbounds i64, ptr %67, i64 %68
  %70 = load i64, ptr %10, align 8
  %71 = getelementptr inbounds i8, ptr %69, i64 %70
  %72 = load i8, ptr %71, align 1
  store i8 %72, ptr %15, align 1
  %73 = load i8, ptr %15, align 1
  %74 = zext i8 %73 to i64
  %75 = getelementptr inbounds nuw [256 x ptr], ptr @hexmask_lookup, i64 0, i64 %74
  %76 = load ptr, ptr %75, align 8
  %77 = getelementptr inbounds i8, ptr %76, i64 1
  %78 = load i8, ptr %77, align 1
  %79 = load ptr, ptr %7, align 8
  store i8 %78, ptr %79, align 1
  %80 = load ptr, ptr %7, align 8
  %81 = getelementptr inbounds i8, ptr %80, i32 -1
  store ptr %81, ptr %7, align 8
  %82 = load i8, ptr %15, align 1
  %83 = zext i8 %82 to i64
  %84 = getelementptr inbounds nuw [256 x ptr], ptr @hexmask_lookup, i64 0, i64 %83
  %85 = load ptr, ptr %84, align 8
  %86 = getelementptr inbounds i8, ptr %85, i64 0
  %87 = load i8, ptr %86, align 1
  %88 = load ptr, ptr %7, align 8
  store i8 %87, ptr %88, align 1
  %89 = load ptr, ptr %7, align 8
  %90 = getelementptr inbounds i8, ptr %89, i32 -1
  store ptr %90, ptr %7, align 8
  call void @llvm.lifetime.end.p0(i64 1, ptr %15) #12
  br label %91

91:                                               ; preds = %66
  %92 = load i64, ptr %10, align 8
  %93 = add nsw i64 %92, 1
  store i64 %93, ptr %10, align 8
  br label %63, !llvm.loop !56

94:                                               ; preds = %63
  %95 = load i64, ptr %9, align 8
  %96 = add i64 %95, 64
  store i64 %96, ptr %9, align 8
  br label %211

97:                                               ; preds = %54
  store i8 0, ptr %8, align 1
  %98 = load ptr, ptr %4, align 8
  %99 = load i64, ptr %9, align 8
  %100 = ashr i64 %99, 6
  %101 = add nsw i64 %100, 2
  %102 = getelementptr inbounds i64, ptr %98, i64 %101
  %103 = load i64, ptr %102, align 8
  %104 = load i64, ptr %9, align 8
  %105 = and i64 %104, 63
  %106 = shl i64 1, %105
  %107 = and i64 %103, %106
  %108 = icmp ne i64 %107, 0
  br i1 %108, label %109, label %110

109:                                              ; preds = %97
  br i1 true, label %111, label %116

110:                                              ; preds = %97
  br i1 false, label %111, label %116

111:                                              ; preds = %110, %109
  %112 = load i8, ptr %8, align 1
  %113 = sext i8 %112 to i32
  %114 = or i32 %113, 1
  %115 = trunc i32 %114 to i8
  store i8 %115, ptr %8, align 1
  br label %116

116:                                              ; preds = %111, %110, %109
  %117 = load i64, ptr %9, align 8
  %118 = add nsw i64 %117, 1
  store i64 %118, ptr %9, align 8
  %119 = load i64, ptr %9, align 8
  %120 = load i64, ptr %12, align 8
  %121 = icmp slt i64 %119, %120
  br i1 %121, label %122, label %141

122:                                              ; preds = %116
  %123 = load ptr, ptr %4, align 8
  %124 = load i64, ptr %9, align 8
  %125 = ashr i64 %124, 6
  %126 = add nsw i64 %125, 2
  %127 = getelementptr inbounds i64, ptr %123, i64 %126
  %128 = load i64, ptr %127, align 8
  %129 = load i64, ptr %9, align 8
  %130 = and i64 %129, 63
  %131 = shl i64 1, %130
  %132 = and i64 %128, %131
  %133 = icmp ne i64 %132, 0
  br i1 %133, label %134, label %135

134:                                              ; preds = %122
  br i1 true, label %136, label %141

135:                                              ; preds = %122
  br i1 false, label %136, label %141

136:                                              ; preds = %135, %134
  %137 = load i8, ptr %8, align 1
  %138 = sext i8 %137 to i32
  %139 = or i32 %138, 2
  %140 = trunc i32 %139 to i8
  store i8 %140, ptr %8, align 1
  br label %141

141:                                              ; preds = %136, %135, %134, %116
  %142 = load i64, ptr %9, align 8
  %143 = add nsw i64 %142, 1
  store i64 %143, ptr %9, align 8
  %144 = load i64, ptr %9, align 8
  %145 = load i64, ptr %12, align 8
  %146 = icmp slt i64 %144, %145
  br i1 %146, label %147, label %166

147:                                              ; preds = %141
  %148 = load ptr, ptr %4, align 8
  %149 = load i64, ptr %9, align 8
  %150 = ashr i64 %149, 6
  %151 = add nsw i64 %150, 2
  %152 = getelementptr inbounds i64, ptr %148, i64 %151
  %153 = load i64, ptr %152, align 8
  %154 = load i64, ptr %9, align 8
  %155 = and i64 %154, 63
  %156 = shl i64 1, %155
  %157 = and i64 %153, %156
  %158 = icmp ne i64 %157, 0
  br i1 %158, label %159, label %160

159:                                              ; preds = %147
  br i1 true, label %161, label %166

160:                                              ; preds = %147
  br i1 false, label %161, label %166

161:                                              ; preds = %160, %159
  %162 = load i8, ptr %8, align 1
  %163 = sext i8 %162 to i32
  %164 = or i32 %163, 4
  %165 = trunc i32 %164 to i8
  store i8 %165, ptr %8, align 1
  br label %166

166:                                              ; preds = %161, %160, %159, %141
  %167 = load i64, ptr %9, align 8
  %168 = add nsw i64 %167, 1
  store i64 %168, ptr %9, align 8
  %169 = load i64, ptr %9, align 8
  %170 = load i64, ptr %12, align 8
  %171 = icmp slt i64 %169, %170
  br i1 %171, label %172, label %191

172:                                              ; preds = %166
  %173 = load ptr, ptr %4, align 8
  %174 = load i64, ptr %9, align 8
  %175 = ashr i64 %174, 6
  %176 = add nsw i64 %175, 2
  %177 = getelementptr inbounds i64, ptr %173, i64 %176
  %178 = load i64, ptr %177, align 8
  %179 = load i64, ptr %9, align 8
  %180 = and i64 %179, 63
  %181 = shl i64 1, %180
  %182 = and i64 %178, %181
  %183 = icmp ne i64 %182, 0
  br i1 %183, label %184, label %185

184:                                              ; preds = %172
  br i1 true, label %186, label %191

185:                                              ; preds = %172
  br i1 false, label %186, label %191

186:                                              ; preds = %185, %184
  %187 = load i8, ptr %8, align 1
  %188 = sext i8 %187 to i32
  %189 = or i32 %188, 8
  %190 = trunc i32 %189 to i8
  store i8 %190, ptr %8, align 1
  br label %191

191:                                              ; preds = %186, %185, %184, %166
  %192 = load i64, ptr %9, align 8
  %193 = add nsw i64 %192, 1
  store i64 %193, ptr %9, align 8
  %194 = load i8, ptr %8, align 1
  %195 = sext i8 %194 to i32
  %196 = icmp sle i32 %195, 9
  br i1 %196, label %197, label %202

197:                                              ; preds = %191
  %198 = load i8, ptr %8, align 1
  %199 = sext i8 %198 to i32
  %200 = add nsw i32 %199, 48
  %201 = trunc i32 %200 to i8
  store i8 %201, ptr %8, align 1
  br label %207

202:                                              ; preds = %191
  %203 = load i8, ptr %8, align 1
  %204 = sext i8 %203 to i32
  %205 = add nsw i32 %204, 55
  %206 = trunc i32 %205 to i8
  store i8 %206, ptr %8, align 1
  br label %207

207:                                              ; preds = %202, %197
  %208 = load i8, ptr %8, align 1
  %209 = load ptr, ptr %7, align 8
  %210 = getelementptr inbounds i8, ptr %209, i32 -1
  store ptr %210, ptr %7, align 8
  store i8 %208, ptr %209, align 1
  br label %211

211:                                              ; preds = %207, %94
  br label %50, !llvm.loop !57

212:                                              ; preds = %50
  %213 = load ptr, ptr %6, align 8
  store ptr %213, ptr %3, align 8
  store i32 1, ptr %13, align 4
  call void @llvm.lifetime.end.p0(i64 8, ptr %14) #12
  br label %214

214:                                              ; preds = %212, %29
  call void @llvm.lifetime.end.p0(i64 8, ptr %12) #12
  call void @llvm.lifetime.end.p0(i64 8, ptr %11) #12
  call void @llvm.lifetime.end.p0(i64 8, ptr %10) #12
  call void @llvm.lifetime.end.p0(i64 8, ptr %9) #12
  call void @llvm.lifetime.end.p0(i64 1, ptr %8) #12
  call void @llvm.lifetime.end.p0(i64 8, ptr %7) #12
  call void @llvm.lifetime.end.p0(i64 8, ptr %6) #12
  %215 = load ptr, ptr %3, align 8
  ret ptr %215
}