; Function Attrs: nounwind uwtable
define internal fastcc ptr @_bit_fmt_hexmask(ptr noundef readonly captures(none) %0, i1 noundef zeroext %1) unnamed_addr #0 {
  %3 = getelementptr inbounds nuw i8, ptr %0, i64 8
  %4 = load i64, ptr %3, align 8
  br i1 %1, label %5, label %29

5:                                                ; preds = %2
  %6 = icmp eq i64 %4, 0
  br i1 %6, label %bit_fls.exit, label %.preheader.i.i

.preheader.i.i:                                   ; preds = %5
  %invariant.gep.i.i = getelementptr inbounds nuw i8, ptr %0, i64 16
  %7 = icmp sgt i64 %4, 0
  br i1 %7, label %.lr.ph.i.i, label %bit_fls.exit

.lr.ph.i.i:                                       ; preds = %.preheader.i.i, %16
  %.02025.i.in.i = phi i64 [ %.02025.i.i, %16 ], [ %4, %.preheader.i.i ]
  %.02025.i.i = add nsw i64 %.02025.i.in.i, -1
  %8 = lshr i64 %.02025.i.i, 6
  %9 = lshr i64 %.02025.i.in.i, 6
  %10 = icmp eq i64 %8, %9
  br i1 %10, label %11, label %.lr.ph33.i.i

11:                                               ; preds = %.lr.ph.i.i
  %gep.i.i = getelementptr inbounds nuw i64, ptr %invariant.gep.i.i, i64 %8
  %12 = load i64, ptr %gep.i.i, align 8
  %13 = and i64 %.02025.i.i, 63
  %14 = shl nuw i64 1, %13
  %15 = and i64 %12, %14
  %.not.i.i = icmp eq i64 %15, 0
  br i1 %.not.i.i, label %16, label %bit_fls.exit

16:                                               ; preds = %11
  %17 = icmp samesign ugt i64 %.02025.i.in.i, 1
  br i1 %17, label %.lr.ph.i.i, label %bit_fls.exit, !llvm.loop !32

.lr.ph33.i.i:                                     ; preds = %.lr.ph.i.i, %.outer.i.i
  %.121.ph39.i.i = phi i64 [ %26, %.outer.i.i ], [ %.02025.i.i, %.lr.ph.i.i ]
  %18 = shl i64 %.121.ph39.i.i, 26
  %sext.i.i = add i64 %18, 8589934592
  %19 = ashr i64 %sext.i.i, 32
  %20 = getelementptr inbounds i64, ptr %0, i64 %19
  %21 = load i64, ptr %20, align 8
  %22 = icmp eq i64 %21, 0
  br i1 %22, label %.outer.i.i, label %.lr.ph33.split.i.i

.lr.ph33.split.i.i:                               ; preds = %.lr.ph33.i.i
  %23 = tail call range(i64 0, 65) i64 @llvm.ctlz.i64(i64 %21, i1 true)
  %24 = sub nsw i64 %.121.ph39.i.i, %23
  %25 = icmp eq i64 %24, -1
  br i1 %25, label %.lr.ph33.split.split.i.i, label %bit_fls.exit, !llvm.loop !33

.lr.ph33.split.split.i.i:                         ; preds = %.lr.ph33.split.i.i, %.lr.ph33.split.split.i.i
  br label %.lr.ph33.split.split.i.i

.outer.i.i:                                       ; preds = %.lr.ph33.i.i
  %26 = add nsw i64 %.121.ph39.i.i, -64
  %27 = icmp sgt i64 %.121.ph39.i.i, 63
  br i1 %27, label %.lr.ph33.i.i, label %bit_fls.exit, !llvm.loop !33

bit_fls.exit:                                     ; preds = %11, %16, %.outer.i.i, %5, %.preheader.i.i, %.lr.ph33.split.i.i
  %.0.i.i = phi i64 [ -1, %5 ], [ %24, %.lr.ph33.split.i.i ], [ -1, %.preheader.i.i ], [ -1, %.outer.i.i ], [ -1, %16 ], [ %.02025.i.i, %11 ]
  %28 = add nsw i64 %.0.i.i, 1
  br label %29

29:                                               ; preds = %2, %bit_fls.exit
  %.062 = phi i64 [ %28, %bit_fls.exit ], [ %4, %2 ]
  %.not = icmp eq i64 %.062, 0
  br i1 %.not, label %30, label %32

30:                                               ; preds = %29
  %31 = tail call ptr @xstrdup(ptr noundef nonnull @.str.10) #17
  br label %.loopexit83

32:                                               ; preds = %29
  %33 = add nsw i64 %.062, 3
  %34 = sdiv i64 %33, 4
  %35 = add nsw i64 %34, 3
  %36 = tail call ptr @slurm_xcalloc(i64 noundef 1, i64 noundef %35, i1 noundef zeroext true, i1 noundef zeroext false, ptr noundef nonnull @.str.3, i32 noundef 1679, ptr noundef nonnull @__func__._bit_fmt_hexmask) #17
  store i8 48, ptr %36, align 1
  %37 = getelementptr inbounds nuw i8, ptr %36, i64 1
  store i8 120, ptr %37, align 1
  %38 = getelementptr i8, ptr %36, i64 %34
  %39 = getelementptr i8, ptr %38, i64 2
  store i8 0, ptr %39, align 1
  %invariant.gep = getelementptr i8, ptr %0, i64 16
  %40 = icmp sgt i64 %.062, 0
  br i1 %40, label %.lr.ph.preheader, label %.loopexit83

.lr.ph.preheader:                                 ; preds = %32
  %41 = getelementptr i8, ptr %38, i64 1
  br label %.lr.ph

.lr.ph:                                           ; preds = %.lr.ph.preheader, %.loopexit
  %.06199 = phi ptr [ %.2, %.loopexit ], [ %41, %.lr.ph.preheader ]
  %.06798 = phi i64 [ %.168, %.loopexit ], [ 0, %.lr.ph.preheader ]
  %42 = add i64 %.06798, 64
  %.not75 = icmp ugt i64 %42, %.062
  %43 = ashr i64 %.06798, 6
  %gep91 = getelementptr i64, ptr %invariant.gep, i64 %43
  br i1 %.not75, label %55, label %.preheader

.preheader:                                       ; preds = %.lr.ph, %.preheader
  %.189 = phi ptr [ %53, %.preheader ], [ %.06199, %.lr.ph ]
  %.06688 = phi i64 [ %54, %.preheader ], [ 0, %.lr.ph ]
  %44 = getelementptr inbounds nuw i8, ptr %gep91, i64 %.06688
  %45 = load i8, ptr %44, align 1
  %46 = zext i8 %45 to i64
  %47 = getelementptr inbounds nuw [256 x ptr], ptr @hexmask_lookup, i64 0, i64 %46
  %48 = load ptr, ptr %47, align 8
  %49 = getelementptr inbounds nuw i8, ptr %48, i64 1
  %50 = load i8, ptr %49, align 1
  store i8 %50, ptr %.189, align 1
  %51 = getelementptr inbounds i8, ptr %.189, i64 -1
  %52 = load i8, ptr %48, align 1
  store i8 %52, ptr %51, align 1
  %53 = getelementptr inbounds i8, ptr %.189, i64 -2
  %54 = add nuw nsw i64 %.06688, 1
  %exitcond.not = icmp eq i64 %54, 8
  br i1 %exitcond.not, label %.loopexit, label %.preheader, !llvm.loop !54

55:                                               ; preds = %.lr.ph
  %56 = load i64, ptr %gep91, align 8
  %57 = and i64 %.06798, 63
  %58 = lshr i64 %56, %57
  %59 = trunc i64 %58 to i8
  %spec.select = and i8 %59, 1
  %60 = add nsw i64 %.06798, 1
  %61 = icmp slt i64 %60, %.062
  br i1 %61, label %62, label %69

62:                                               ; preds = %55
  %63 = ashr i64 %60, 6
  %gep93 = getelementptr i64, ptr %invariant.gep, i64 %63
  %64 = load i64, ptr %gep93, align 8
  %65 = and i64 %60, 63
  %66 = shl nuw i64 1, %65
  %67 = and i64 %64, %66
  %.not77 = icmp eq i64 %67, 0
  %68 = or disjoint i8 %spec.select, 2
  %spec.select80 = select i1 %.not77, i8 %spec.select, i8 %68
  br label %69

69:                                               ; preds = %62, %55
  %.164 = phi i8 [ %spec.select, %55 ], [ %spec.select80, %62 ]
  %70 = add nsw i64 %.06798, 2
  %71 = icmp slt i64 %70, %.062
  br i1 %71, label %72, label %79

72:                                               ; preds = %69
  %73 = ashr i64 %70, 6
  %gep95 = getelementptr i64, ptr %invariant.gep, i64 %73
  %74 = load i64, ptr %gep95, align 8
  %75 = and i64 %70, 63
  %76 = shl nuw i64 1, %75
  %77 = and i64 %74, %76
  %.not78 = icmp eq i64 %77, 0
  %78 = or i8 %.164, 4
  %spec.select81 = select i1 %.not78, i8 %.164, i8 %78
  br label %79

79:                                               ; preds = %72, %69
  %.265 = phi i8 [ %.164, %69 ], [ %spec.select81, %72 ]
  %80 = add nsw i64 %.06798, 3
  %81 = icmp slt i64 %80, %.062
  br i1 %81, label %82, label %89

82:                                               ; preds = %79
  %83 = ashr i64 %80, 6
  %gep97 = getelementptr i64, ptr %invariant.gep, i64 %83
  %84 = load i64, ptr %gep97, align 8
  %85 = and i64 %80, 63
  %86 = shl nuw i64 1, %85
  %87 = and i64 %84, %86
  %.not79 = icmp eq i64 %87, 0
  %88 = or i8 %.265, 8
  %spec.select82 = select i1 %.not79, i8 %.265, i8 %88
  br label %89

89:                                               ; preds = %82, %79
  %.3 = phi i8 [ %.265, %79 ], [ %spec.select82, %82 ]
  %90 = add nsw i64 %.06798, 4
  %91 = icmp samesign ult i8 %.3, 10
  %92 = or disjoint i8 %.3, 48
  %93 = add nuw nsw i8 %.3, 55
  %.4 = select i1 %91, i8 %92, i8 %93
  %94 = getelementptr inbounds i8, ptr %.06199, i64 -1
  store i8 %.4, ptr %.06199, align 1
  br label %.loopexit

.loopexit:                                        ; preds = %.preheader, %89
  %.168 = phi i64 [ %90, %89 ], [ %42, %.preheader ]
  %.2 = phi ptr [ %94, %89 ], [ %53, %.preheader ]
  %95 = icmp slt i64 %.168, %.062
  br i1 %95, label %.lr.ph, label %.loopexit83, !llvm.loop !55

.loopexit83:                                      ; preds = %.loopexit, %32, %30
  %.0 = phi ptr [ %31, %30 ], [ %36, %32 ], [ %36, %.loopexit ]
  ret ptr %.0
}